(dp0
Vengine
p1
Vxelatex
p2
sVpackages
p3
c__builtin__
set
p4
((lp5
Vpdflscape
p6
aVleipzig
p7
aVchngpage
p8
aVafterpage
p9
aV./langsci/styles/langsci-lgr
p10
aVlscape
p11
aVmulticol
p12
aVlayout
p13
aV./langsci/styles/langsci-optional
p14
aVmdframed
p15
aVtipa
p16
aVbabel
p17
aVscrextend
p18
aVlongtable
p19
aVmultirow
p20
aV./langsci/styles/langsci-glyphs
p21
aVvowel
p22
aV./langsci/styles/langsci-gb4e
p23
aVtikz-qtree
p24
aVgeometry
p25
aVsoul
p26
aVhhline
p27
aVfixltx2e
p28
aVtabularx
p29
aVamssymb
p30
atp31
Rp32
sVfiles_with_guttermarks
p33
g4
((lp34
V/Users/christiandohler/GitHub/212/chapters/abbreviations.tex
p35
aV/Users/christiandohler/GitHub/212/chapters/06.tex
p36
aV/Users/christiandohler/GitHub/212/chapters/03.tex
p37
aV/Users/christiandohler/GitHub/212/chapters/acknowledgments.tex
p38
aV/Users/christiandohler/GitHub/212/chapters/07.tex
p39
aV/Users/christiandohler/GitHub/212/backmatter.tex
p40
aV/Users/christiandohler/GitHub/212/chapters/10.tex
p41
aV/Users/christiandohler/GitHub/212/chapters/01.tex
p42
aV/Users/christiandohler/GitHub/212/chapters/08.tex
p43
aV/Users/christiandohler/GitHub/212/chapters/05.tex
p44
aV/Users/christiandohler/GitHub/212/./chapters/13-appendix.tex
p45
aS'main.tex'
p46
aV/Users/christiandohler/GitHub/212/chapters/02.tex
p47
aV/Users/christiandohler/GitHub/212/chapters/09.tex
p48
aV/Users/christiandohler/GitHub/212/chapters/11.tex
p49
aV/Users/christiandohler/GitHub/212/chapters/04.tex
p50
atp51
Rp52
sVsynctex
p53
I01
s.